(dp0
S'button_2'
p1
S''
p2
sS'image_19'
p3
S'/static/components/jqm_nothing.svg'
p4
sS'image_18'
p5
S'/static/components/jqm_nothing.svg'
p6
sS'image_15'
p7
S'/static/components/jqm_nothing.svg'
p8
sS'image_14'
p9
S'/static/components/jqm_nothing.svg'
p10
sS'image_17'
p11
S'/static/components/jqm_nothing.svg'
p12
sS'image_16'
p13
S'/static/components/jqm_nothing.svg'
p14
sS'image_11'
p15
Vstatic/components/jqm_slider.svg
p16
sS'image_10'
p17
Vstatic/components/jqm_button.svg
p18
sS'image_13'
p19
S'/static/components/jqm_nothing.svg'
p20
sS'input_15'
p21
S'naam:|label:|type:nothing|id:nothing_15'
p22
sS'input_26'
p23
VControle mp3player ESP
p24
sS'select_25'
p25
g2
sS'select_15'
p26
g2
sS'image_9'
p27
Vstatic/components/jqm_button.svg
p28
sS'output_2'
p29
g2
sS'output_0'
p30
g2
sS'image_1'
p31
g2
sS'input_19'
p32
S'naam:|label:|type:nothing|id:nothing_19'
p33
sS'select_17'
p34
g2
sS'select_16'
p35
g2
sS'select_11'
p36
g2
sS'select_10'
p37
g2
sS'image_7'
p38
Vstatic/components/jqm_button.svg
p39
sS'select_12'
p40
g2
sS'button_1'
p41
g2
sS'input_11'
p42
Vnaam:sld_volume|label:Volume|type:slider|id:slider_11
p43
sS'input_12'
p44
Vnaam:btn_volup|label:Volume +|type:button|id:button_12
p45
sS'input_13'
p46
S'naam:|label:|type:nothing|id:nothing_13'
p47
sS'select_19'
p48
g2
sS'select_18'
p49
g2
sS'input_16'
p50
S'naam:|label:|type:nothing|id:nothing_16'
p51
sS'input_17'
p52
S'naam:|label:|type:nothing|id:nothing_17'
p53
sS'input_6'
p54
Vnaam:btn_first|label:First|type:button|id:button_6
p55
sS'input_7'
p56
Vnaam:btn_prev|label:Previous|type:button|id:button_7
p57
sS'input_4'
p58
Vnaam:btn_stop|label:Stop|type:button|id:button_4
p59
sS'input_5'
p60
Vnaam:sel_track|label:Track|type:select|id:select_5
p61
sS'select_9'
p62
g2
sS'select_8'
p63
g2
sS'input_1'
p64
VMP3PlayerApp
p65
sS'select_5'
p66
g2
sS'input_2'
p67
Vnaam:btn_play|label:Play|type:button|id:button_2
p68
sS'select_7'
p69
g2
sS'select_6'
p70
g2
sS'select_1'
p71
(dp72
S'fill@select'
p73
(lp74
S'secretchat'
p75
aS'Led1Esp'
p76
aS'testESPbutton'
p77
aS'ledcontrol'
p78
aS'testbank'
p79
aS'mp3player'
p80
aS'webcontrolLEDESP'
p81
aS'testHTTPReq'
p82
aS'lichtmeter'
p83
aS'LEDESP'
p84
aS'ZegHallo'
p85
aS'nieuw'
p86
ag65
asS'value'
p87
g65
ssS'select_3'
p88
g2
sS'select_2'
p89
g2
sS'input_18'
p90
S'naam:|label:|type:nothing|id:nothing_18'
p91
sS'select_14'
p92
g2
sS'image_3'
p93
Vstatic/components/jqm_button.svg
p94
sS'image_24'
p95
S'/static/components/jqm_nothing.svg'
p96
sS'input_3'
p97
Vnaam:btn_pauze|label:Pauze|type:button|id:button_3
p98
sS'image_2'
p99
Vstatic/components/jqm_button.svg
p100
sS'image_20'
p101
S'/static/components/jqm_nothing.svg'
p102
sS'image_21'
p103
S'/static/components/jqm_nothing.svg'
p104
sS'image_22'
p105
S'/static/components/jqm_nothing.svg'
p106
sS'select_4'
p107
g2
sS'select_24'
p108
g2
sS'image_5'
p109
Vstatic/components/jqm_select.svg
p110
sS'image_12'
p111
Vstatic/components/jqm_button.svg
p112
sS'select_20'
p113
g2
sS'select_21'
p114
g2
sS'select_22'
p115
g2
sS'image_4'
p116
Vstatic/components/jqm_button.svg
p117
sS'input_21'
p118
S'naam:|label:|type:nothing|id:nothing_21'
p119
sS'input_20'
p120
S'naam:|label:|type:nothing|id:nothing_20'
p121
sS'input_23'
p122
S'naam:|label:|type:nothing|id:nothing_23'
p123
sS'input_22'
p124
S'naam:|label:|type:nothing|id:nothing_22'
p125
sS'input_25'
p126
S'naam:|label:|type:nothing|id:nothing_25'
p127
sS'select_13'
p128
g2
sS'input_27'
p129
g2
sS'image_25'
p130
S'/static/components/jqm_nothing.svg'
p131
sS'input_24'
p132
S'naam:|label:|type:nothing|id:nothing_24'
p133
sS'image_23'
p134
S'/static/components/jqm_nothing.svg'
p135
sS'input_14'
p136
S'naam:|label:|type:nothing|id:nothing_14'
p137
sS'input_10'
p138
Vnaam:btn_voldown|label:Volume -|type:button|id:button_10
p139
sS'select_23'
p140
g2
sS'input_8'
p141
Vnaam:btn_next|label:Next|type:button|id:button_8
p142
sS'image_8'
p143
Vstatic/components/jqm_button.svg
p144
sS'input_9'
p145
Vnaam:btn_last|label:Last|type:button|id:button_9
p146
sS'image_6'
p147
Vstatic/components/jqm_button.svg
p148
s.