(dp0
S'button_2'
p1
S''
p2
sS'image_19'
p3
S'/static/components/jqm_nothing.svg'
p4
sS'image_18'
p5
S'/static/components/jqm_nothing.svg'
p6
sS'image_15'
p7
S'/static/components/jqm_nothing.svg'
p8
sS'image_14'
p9
S'/static/components/jqm_nothing.svg'
p10
sS'image_17'
p11
S'/static/components/jqm_nothing.svg'
p12
sS'image_16'
p13
S'/static/components/jqm_nothing.svg'
p14
sS'image_11'
p15
S'/static/components/jqm_nothing.svg'
p16
sS'image_10'
p17
S'/static/components/jqm_nothing.svg'
p18
sS'image_13'
p19
S'/static/components/jqm_nothing.svg'
p20
sS'input_15'
p21
S'naam:|label:|type:nothing|id:nothing_15'
p22
sS'input_10'
p23
S'naam:|label:|type:nothing|id:nothing_10'
p24
sS'select_25'
p25
g2
sS'image_1'
p26
g2
sS'output_2'
p27
g2
sS'output_0'
p28
g2
sS'input_18'
p29
S'naam:|label:|type:nothing|id:nothing_18'
p30
sS'input_19'
p31
S'naam:|label:|type:nothing|id:nothing_19'
p32
sS'select_17'
p33
g2
sS'select_16'
p34
g2
sS'select_11'
p35
g2
sS'select_10'
p36
g2
sS'image_7'
p37
S'/static/components/jqm_nothing.svg'
p38
sS'select_12'
p39
g2
sS'image_9'
p40
S'/static/components/jqm_nothing.svg'
p41
sS'input_11'
p42
S'naam:|label:|type:nothing|id:nothing_11'
p43
sS'input_12'
p44
S'naam:|label:|type:nothing|id:nothing_12'
p45
sS'input_13'
p46
S'naam:|label:|type:nothing|id:nothing_13'
p47
sS'select_19'
p48
g2
sS'select_18'
p49
g2
sS'input_16'
p50
S'naam:|label:|type:nothing|id:nothing_16'
p51
sS'input_17'
p52
S'naam:|label:|type:nothing|id:nothing_17'
p53
sS'input_6'
p54
S'naam:|label:|type:nothing|id:nothing_6'
p55
sS'input_7'
p56
S'naam:|label:|type:nothing|id:nothing_7'
p57
sS'input_4'
p58
S'naam:|label:|type:nothing|id:nothing_4'
p59
sS'input_5'
p60
S'naam:|label:|type:nothing|id:nothing_5'
p61
sS'select_9'
p62
g2
sS'select_8'
p63
g2
sS'input_1'
p64
VtestESPbutton
p65
sS'select_5'
p66
g2
sS'input_2'
p67
Vnaam:btn_teller|label:Hidden|type:button|id:button_2
p68
sS'select_7'
p69
g2
sS'select_6'
p70
g2
sS'select_1'
p71
(dp72
S'fill@select'
p73
(lp74
S'secretchat'
p75
aS'Led1Esp'
p76
aS'ledcontrol'
p77
aS'testbank'
p78
aS'mp3player'
p79
aS'webcontrolLEDESP'
p80
aS'testHTTPReq'
p81
aS'LEDESP'
p82
aS'ZegHallo'
p83
aS'nieuw'
p84
ag65
asS'value'
p85
g65
ssS'select_3'
p86
g2
sS'input_3'
p87
Vnaam:txt_teller|label:Teller|type:output:text|id:output_3
p88
sS'select_15'
p89
g2
sS'select_14'
p90
g2
sS'image_3'
p91
Vstatic/components/jqm_textfield.svg
p92
sS'image_24'
p93
S'/static/components/jqm_nothing.svg'
p94
sS'image_25'
p95
S'/static/components/jqm_nothing.svg'
p96
sS'image_2'
p97
Vstatic/components/jqm_button.svg
p98
sS'image_20'
p99
S'/static/components/jqm_nothing.svg'
p100
sS'image_21'
p101
S'/static/components/jqm_nothing.svg'
p102
sS'image_22'
p103
S'/static/components/jqm_nothing.svg'
p104
sS'select_4'
p105
g2
sS'select_24'
p106
g2
sS'image_5'
p107
S'/static/components/jqm_nothing.svg'
p108
sS'image_12'
p109
S'/static/components/jqm_nothing.svg'
p110
sS'select_20'
p111
g2
sS'select_21'
p112
g2
sS'select_22'
p113
g2
sS'image_4'
p114
S'/static/components/jqm_nothing.svg'
p115
sS'input_21'
p116
S'naam:|label:|type:nothing|id:nothing_21'
p117
sS'input_20'
p118
S'naam:|label:|type:nothing|id:nothing_20'
p119
sS'input_23'
p120
S'naam:|label:|type:nothing|id:nothing_23'
p121
sS'input_22'
p122
S'naam:|label:|type:nothing|id:nothing_22'
p123
sS'input_25'
p124
S'naam:|label:|type:nothing|id:nothing_25'
p125
sS'select_13'
p126
g2
sS'input_27'
p127
g2
sS'input_24'
p128
S'naam:|label:|type:nothing|id:nothing_24'
p129
sS'input_26'
p130
VTel het aantal contacten
p131
sS'image_23'
p132
S'/static/components/jqm_nothing.svg'
p133
sS'input_14'
p134
S'naam:|label:|type:nothing|id:nothing_14'
p135
sS'button_1'
p136
g2
sS'select_23'
p137
g2
sS'input_8'
p138
S'naam:|label:|type:nothing|id:nothing_8'
p139
sS'image_8'
p140
S'/static/components/jqm_nothing.svg'
p141
sS'input_9'
p142
S'naam:|label:|type:nothing|id:nothing_9'
p143
sS'image_6'
p144
S'/static/components/jqm_nothing.svg'
p145
sS'select_2'
p146
g2
s.